; Function Attrs: mustprogress nounwind uwtable
define dso_local noundef nonnull align 8 dereferenceable(48) ptr @_ZN4llvmlsERNS_11raw_ostreamERKNS_14FaultMapParser25FunctionFaultInfoAccessorE(ptr noundef nonnull returned align 8 dereferenceable(48) %0, ptr nocapture noundef nonnull readonly align 8 dereferenceable(16) %1) local_unnamed_addr #0 {
  %3 = getelementptr inbounds nuw i8, ptr %0, i64 24
  %4 = load ptr, ptr %3, align 8
  %5 = getelementptr inbounds nuw i8, ptr %0, i64 32
  %6 = load ptr, ptr %5, align 8
  %7 = ptrtoint ptr %4 to i64
  %8 = ptrtoint ptr %6 to i64
  %9 = sub i64 %7, %8
  %10 = icmp ult i64 %9, 12
  br i1 %10, label %11, label %13

11:                                               ; preds = %2
  %12 = tail call noundef nonnull align 8 dereferenceable(48) ptr @_ZN4llvm11raw_ostream5writeEPKcm(ptr noundef nonnull align 8 dereferenceable(48) %0, ptr noundef nonnull @.str.3, i64 noundef 12) #5
  %.pre = load ptr, ptr %5, align 8
  br label %_ZN4llvm11raw_ostreamlsEPKc.exit

13:                                               ; preds = %2
  tail call void @llvm.memcpy.p0.p0.i64(ptr noundef nonnull align 1 dereferenceable(12) %6, ptr noundef nonnull align 1 dereferenceable(12) @.str.3, i64 12, i1 false)
  %14 = load ptr, ptr %5, align 8
  %15 = getelementptr inbounds i8, ptr %14, i64 12
  store ptr %15, ptr %5, align 8
  br label %_ZN4llvm11raw_ostreamlsEPKc.exit

_ZN4llvm11raw_ostreamlsEPKc.exit:                 ; preds = %11, %13
  %16 = phi ptr [ %.pre, %11 ], [ %15, %13 ]
  %17 = load ptr, ptr %1, align 8
  call void @llvm.assume(i1 true) [ "align"(ptr %17, i64 1) ]
  %.0.copyload.i.i.i.i.i.i = load i32, ptr %17, align 1
  %18 = load ptr, ptr %3, align 8
  %19 = ptrtoint ptr %18 to i64
  %20 = ptrtoint ptr %16 to i64
  %21 = sub i64 %19, %20
  switch i32 %.0.copyload.i.i.i.i.i.i, label %22 [
    i32 1, label %23
    i32 2, label %30
    i32 3, label %37
  ]

22:                                               ; preds = %_ZN4llvm11raw_ostreamlsEPKc.exit
  unreachable

23:                                               ; preds = %_ZN4llvm11raw_ostreamlsEPKc.exit
  %24 = icmp ult i64 %21, 12
  br i1 %24, label %25, label %27

25:                                               ; preds = %23
  %26 = tail call noundef nonnull align 8 dereferenceable(48) ptr @_ZN4llvm11raw_ostream5writeEPKcm(ptr noundef nonnull align 8 dereferenceable(48) %0, ptr noundef nonnull @.str, i64 noundef 12) #5
  br label %_Z14printFaultTypeN4llvm14FaultMapParser9FaultKindERNS_11raw_ostreamE.exit

27:                                               ; preds = %23
  tail call void @llvm.memcpy.p0.p0.i64(ptr noundef nonnull align 1 dereferenceable(12) %16, ptr noundef nonnull align 1 dereferenceable(12) @.str, i64 12, i1 false)
  %28 = load ptr, ptr %5, align 8
  %29 = getelementptr inbounds i8, ptr %28, i64 12
  store ptr %29, ptr %5, align 8
  br label %_Z14printFaultTypeN4llvm14FaultMapParser9FaultKindERNS_11raw_ostreamE.exit

30:                                               ; preds = %_ZN4llvm11raw_ostreamlsEPKc.exit
  %31 = icmp ult i64 %21, 17
  br i1 %31, label %32, label %34

32:                                               ; preds = %30
  %33 = tail call noundef nonnull align 8 dereferenceable(48) ptr @_ZN4llvm11raw_ostream5writeEPKcm(ptr noundef nonnull align 8 dereferenceable(48) %0, ptr noundef nonnull @.str.1, i64 noundef 17) #5
  br label %_Z14printFaultTypeN4llvm14FaultMapParser9FaultKindERNS_11raw_ostreamE.exit

34:                                               ; preds = %30
  tail call void @llvm.memcpy.p0.p0.i64(ptr noundef nonnull align 1 dereferenceable(17) %16, ptr noundef nonnull align 1 dereferenceable(17) @.str.1, i64 17, i1 false)
  %35 = load ptr, ptr %5, align 8
  %36 = getelementptr inbounds i8, ptr %35, i64 17
  store ptr %36, ptr %5, align 8
  br label %_Z14printFaultTypeN4llvm14FaultMapParser9FaultKindERNS_11raw_ostreamE.exit

37:                                               ; preds = %_ZN4llvm11raw_ostreamlsEPKc.exit
  %38 = icmp ult i64 %21, 13
  br i1 %38, label %39, label %41

39:                                               ; preds = %37
  %40 = tail call noundef nonnull align 8 dereferenceable(48) ptr @_ZN4llvm11raw_ostream5writeEPKcm(ptr noundef nonnull align 8 dereferenceable(48) %0, ptr noundef nonnull @.str.2, i64 noundef 13) #5
  br label %_Z14printFaultTypeN4llvm14FaultMapParser9FaultKindERNS_11raw_ostreamE.exit

41:                                               ; preds = %37
  tail call void @llvm.memcpy.p0.p0.i64(ptr noundef nonnull align 1 dereferenceable(13) %16, ptr noundef nonnull align 1 dereferenceable(13) @.str.2, i64 13, i1 false)
  %42 = load ptr, ptr %5, align 8
  %43 = getelementptr inbounds i8, ptr %42, i64 13
  store ptr %43, ptr %5, align 8
  br label %_Z14printFaultTypeN4llvm14FaultMapParser9FaultKindERNS_11raw_ostreamE.exit

_Z14printFaultTypeN4llvm14FaultMapParser9FaultKindERNS_11raw_ostreamE.exit: ; preds = %25, %27, %32, %34, %39, %41
  %44 = load ptr, ptr %3, align 8
  %45 = load ptr, ptr %5, align 8
  %46 = ptrtoint ptr %44 to i64
  %47 = ptrtoint ptr %45 to i64
  %48 = sub i64 %46, %47
  %49 = icmp ult i64 %48, 22
  br i1 %49, label %50, label %52

50:                                               ; preds = %_Z14printFaultTypeN4llvm14FaultMapParser9FaultKindERNS_11raw_ostreamE.exit
  %51 = tail call noundef nonnull align 8 dereferenceable(48) ptr @_ZN4llvm11raw_ostream5writeEPKcm(ptr noundef nonnull align 8 dereferenceable(48) %0, ptr noundef nonnull @.str.4, i64 noundef 22) #5
  br label %_ZN4llvm11raw_ostreamlsEPKc.exit9

52:                                               ; preds = %_Z14printFaultTypeN4llvm14FaultMapParser9FaultKindERNS_11raw_ostreamE.exit
  tail call void @llvm.memcpy.p0.p0.i64(ptr noundef nonnull align 1 dereferenceable(22) %45, ptr noundef nonnull align 1 dereferenceable(22) @.str.4, i64 22, i1 false)
  %53 = load ptr, ptr %5, align 8
  %54 = getelementptr inbounds i8, ptr %53, i64 22
  store ptr %54, ptr %5, align 8
  br label %_ZN4llvm11raw_ostreamlsEPKc.exit9

_ZN4llvm11raw_ostreamlsEPKc.exit9:                ; preds = %50, %52
  %.0.i.i8 = phi ptr [ %51, %50 ], [ %0, %52 ]
  %55 = load ptr, ptr %1, align 8
  %56 = getelementptr inbounds i8, ptr %55, i64 4
  call void @llvm.assume(i1 true) [ "align"(ptr %56, i64 1) ]
  %.0.copyload.i.i.i.i.i.i10 = load i32, ptr %56, align 1
  %57 = zext i32 %.0.copyload.i.i.i.i.i.i10 to i64
  %58 = tail call noundef nonnull align 8 dereferenceable(48) ptr @_ZN4llvm11raw_ostreamlsEm(ptr noundef nonnull align 8 dereferenceable(48) %.0.i.i8, i64 noundef %57) #5
  %59 = getelementptr inbounds nuw i8, ptr %58, i64 24
  %60 = load ptr, ptr %59, align 8
  %61 = getelementptr inbounds nuw i8, ptr %58, i64 32
  %62 = load ptr, ptr %61, align 8
  %63 = ptrtoint ptr %60 to i64
  %64 = ptrtoint ptr %62 to i64
  %65 = sub i64 %63, %64
  %66 = icmp ult i64 %65, 22
  br i1 %66, label %67, label %69

67:                                               ; preds = %_ZN4llvm11raw_ostreamlsEPKc.exit9
  %68 = tail call noundef nonnull align 8 dereferenceable(48) ptr @_ZN4llvm11raw_ostream5writeEPKcm(ptr noundef nonnull align 8 dereferenceable(48) %58, ptr noundef nonnull @.str.5, i64 noundef 22) #5
  br label %_ZN4llvm11raw_ostreamlsEPKc.exit13

69:                                               ; preds = %_ZN4llvm11raw_ostreamlsEPKc.exit9
  tail call void @llvm.memcpy.p0.p0.i64(ptr noundef nonnull align 1 dereferenceable(22) %62, ptr noundef nonnull align 1 dereferenceable(22) @.str.5, i64 22, i1 false)
  %70 = load ptr, ptr %61, align 8
  %71 = getelementptr inbounds i8, ptr %70, i64 22
  store ptr %71, ptr %61, align 8
  br label %_ZN4llvm11raw_ostreamlsEPKc.exit13

_ZN4llvm11raw_ostreamlsEPKc.exit13:               ; preds = %67, %69
  %.0.i.i12 = phi ptr [ %68, %67 ], [ %58, %69 ]
  %72 = load ptr, ptr %1, align 8
  %73 = getelementptr inbounds i8, ptr %72, i64 8
  call void @llvm.assume(i1 true) [ "align"(ptr %73, i64 1) ]
  %.0.copyload.i.i.i.i.i.i14 = load i32, ptr %73, align 1
  %74 = zext i32 %.0.copyload.i.i.i.i.i.i14 to i64
  %75 = tail call noundef nonnull align 8 dereferenceable(48) ptr @_ZN4llvm11raw_ostreamlsEm(ptr noundef nonnull align 8 dereferenceable(48) %.0.i.i12, i64 noundef %74) #5
  ret ptr %0
}